target datalayout = "e-m:e-p270:32:32-p271:32:32-p272:64:64-i64:64-i128:128-f80:128-n8:16:32:64-S128"
target triple = "x86_64-pc-linux-gnu"

%struct.evhttp_connection = type { %struct.anon, ptr, %struct.event, ptr, i16, ptr, i16, ptr, i64, i64, i32, %struct.timeval, %struct.timeval, %struct.timeval, i32, i32, %struct.timeval, i32, ptr, %struct.evcon_requestq, ptr, ptr, ptr, ptr, %struct.event_callback, ptr, ptr, i32, ptr }
%struct.anon = type { ptr, ptr }
%struct.event = type { %struct.event_callback, %union.anon.1, i32, i16, i16, ptr, %union.anon.3, %struct.timeval }
%union.anon.1 = type { %struct.anon.2 }
%struct.anon.2 = type { ptr, ptr }
%union.anon.3 = type { %struct.anon.4 }
%struct.anon.4 = type { %struct.anon.5, %struct.timeval }
%struct.anon.5 = type { ptr, ptr }
%struct.timeval = type { i64, i64 }
%struct.evcon_requestq = type { ptr, ptr }
%struct.event_callback = type { %struct.anon.0, i16, i8, i8, %union.anon, ptr }
%struct.anon.0 = type { ptr, ptr }
%union.anon = type { ptr }
%struct.evhttp_request = type { %struct.anon.8, ptr, i32, ptr, ptr, ptr, i16, ptr, i32, i32, i64, i64, ptr, ptr, i8, i8, i32, ptr, ptr, i64, i8, ptr, ptr, ptr, ptr, ptr, ptr, ptr, ptr }
%struct.anon.8 = type { ptr, ptr }

@event_debug_logging_mask_ = external global i32, align 4
@.str.21 = private unnamed_addr constant [6 x i8] c"0\0D\0A\0D\0A\00", align 1
@.str.95 = private unnamed_addr constant [31 x i8] c"%s: preparing to write buffer\0A\00", align 1
@__func__.evhttp_write_buffer = private unnamed_addr constant [20 x i8] c"evhttp_write_buffer\00", align 1

; Function Attrs: nounwind uwtable
define internal void @evhttp_write_buffer(ptr noundef %0, ptr noundef %1, ptr noundef %2) #0 {
  %4 = alloca ptr, align 8
  %5 = alloca ptr, align 8
  %6 = alloca ptr, align 8
  store ptr %0, ptr %4, align 8
  store ptr %1, ptr %5, align 8
  store ptr %2, ptr %6, align 8
  br label %7

7:                                                ; preds = %3
  %8 = load i32, ptr @event_debug_logging_mask_, align 4
  %9 = icmp ne i32 %8, 0
  br i1 %9, label %10, label %11

10:                                               ; preds = %7
  call void (ptr, ...) @event_debugx_(ptr noundef @.str.95, ptr noundef @__func__.evhttp_write_buffer)
  br label %11

11:                                               ; preds = %10, %7
  br label %12

12:                                               ; preds = %11
  %13 = load ptr, ptr %5, align 8
  %14 = load ptr, ptr %4, align 8
  %15 = getelementptr inbounds nuw %struct.evhttp_connection, ptr %14, i32 0, i32 20
  store ptr %13, ptr %15, align 8
  %16 = load ptr, ptr %6, align 8
  %17 = load ptr, ptr %4, align 8
  %18 = getelementptr inbounds nuw %struct.evhttp_connection, ptr %17, i32 0, i32 21
  store ptr %16, ptr %18, align 8
  %19 = load ptr, ptr %4, align 8
  %20 = getelementptr inbounds nuw %struct.evhttp_connection, ptr %19, i32 0, i32 1
  %21 = load ptr, ptr %20, align 8
  %22 = load ptr, ptr %4, align 8
  call void @bufferevent_setcb(ptr noundef %21, ptr noundef null, ptr noundef @evhttp_write_cb, ptr noundef @evhttp_error_cb, ptr noundef %22)
  %23 = load ptr, ptr %4, align 8
  %24 = getelementptr inbounds nuw %struct.evhttp_connection, ptr %23, i32 0, i32 1
  %25 = load ptr, ptr %24, align 8
  %26 = call i32 @bufferevent_enable(ptr noundef %25, i16 noundef signext 6)
  ret void
}

; Function Attrs: nounwind uwtable
define void @evhttp_send_reply_end(ptr noundef %0) #0 {
  %2 = alloca ptr, align 8
  %3 = alloca ptr, align 8
  %4 = alloca ptr, align 8
  %5 = alloca i32, align 4
  store ptr %0, ptr %2, align 8
  call void @llvm.lifetime.start.p0(i64 8, ptr %3) #11
  %6 = load ptr, ptr %2, align 8
  %7 = getelementptr inbounds nuw %struct.evhttp_request, ptr %6, i32 0, i32 1
  %8 = load ptr, ptr %7, align 8
  store ptr %8, ptr %3, align 8
  call void @llvm.lifetime.start.p0(i64 8, ptr %4) #11
  %9 = load ptr, ptr %3, align 8
  %10 = icmp eq ptr %9, null
  br i1 %10, label %11, label %13

11:                                               ; preds = %1
  %12 = load ptr, ptr %2, align 8
  call void @evhttp_request_free(ptr noundef %12)
  store i32 1, ptr %5, align 4
  br label %53

13:                                               ; preds = %1
  %14 = load ptr, ptr %3, align 8
  %15 = getelementptr inbounds nuw %struct.evhttp_connection, ptr %14, i32 0, i32 1
  %16 = load ptr, ptr %15, align 8
  %17 = call ptr @bufferevent_get_output(ptr noundef %16)
  store ptr %17, ptr %4, align 8
  %18 = load ptr, ptr %2, align 8
  %19 = getelementptr inbounds nuw %struct.evhttp_request, ptr %18, i32 0, i32 20
  %20 = load i8, ptr %19, align 8
  %21 = and i8 %20, -3
  %22 = or i8 %21, 2
  store i8 %22, ptr %19, align 8
  %23 = load ptr, ptr %2, align 8
  %24 = getelementptr inbounds nuw %struct.evhttp_request, ptr %23, i32 0, i32 20
  %25 = load i8, ptr %24, align 8
  %26 = and i8 %25, 1
  %27 = zext i8 %26 to i32
  %28 = icmp ne i32 %27, 0
  br i1 %28, label %29, label %40

29:                                               ; preds = %13
  %30 = load ptr, ptr %4, align 8
  %31 = call i32 @evbuffer_add(ptr noundef %30, ptr noundef @.str.21, i64 noundef 5)
  %32 = load ptr, ptr %2, align 8
  %33 = getelementptr inbounds nuw %struct.evhttp_request, ptr %32, i32 0, i32 1
  %34 = load ptr, ptr %33, align 8
  call void @evhttp_write_buffer(ptr noundef %34, ptr noundef @evhttp_send_done, ptr noundef null)
  %35 = load ptr, ptr %2, align 8
  %36 = getelementptr inbounds nuw %struct.evhttp_request, ptr %35, i32 0, i32 20
  %37 = load i8, ptr %36, align 8
  %38 = and i8 %37, -2
  %39 = or i8 %38, 0
  store i8 %39, ptr %36, align 8
  br label %52

40:                                               ; preds = %13
  %41 = load ptr, ptr %4, align 8
  %42 = call i64 @evbuffer_get_length(ptr noundef %41)
  %43 = icmp eq i64 %42, 0
  br i1 %43, label %44, label %46

44:                                               ; preds = %40
  %45 = load ptr, ptr %3, align 8
  call void @evhttp_send_done(ptr noundef %45, ptr noundef null)
  br label %51

46:                                               ; preds = %40
  %47 = load ptr, ptr %3, align 8
  %48 = getelementptr inbounds nuw %struct.evhttp_connection, ptr %47, i32 0, i32 20
  store ptr @evhttp_send_done, ptr %48, align 8
  %49 = load ptr, ptr %3, align 8
  %50 = getelementptr inbounds nuw %struct.evhttp_connection, ptr %49, i32 0, i32 21
  store ptr null, ptr %50, align 8
  br label %51

51:                                               ; preds = %46, %44
  br label %52

52:                                               ; preds = %51, %29
  store i32 0, ptr %5, align 4
  br label %53

53:                                               ; preds = %52, %11
  call void @llvm.lifetime.end.p0(i64 8, ptr %4) #11
  call void @llvm.lifetime.end.p0(i64 8, ptr %3) #11
  %54 = load i32, ptr %5, align 4
  switch i32 %54, label %56 [
    i32 0, label %55
    i32 1, label %55
  ]

55:                                               ; preds = %53, %53
  ret void

56:                                               ; preds = %53
  unreachable
}