; Function Attrs: nounwind uwtable
define void @evhttp_send_reply_end(ptr noundef %0) local_unnamed_addr #0 {
  %2 = getelementptr inbounds nuw i8, ptr %0, i64 16
  %3 = load ptr, ptr %2, align 8
  %4 = icmp eq ptr %3, null
  br i1 %4, label %5, label %6

5:                                                ; preds = %1
  tail call void @evhttp_request_free(ptr noundef nonnull %0)
  br label %34

6:                                                ; preds = %1
  %7 = getelementptr inbounds nuw i8, ptr %3, i64 16
  %8 = load ptr, ptr %7, align 8
  %9 = tail call ptr @bufferevent_get_output(ptr noundef %8) #18
  %10 = getelementptr inbounds nuw i8, ptr %0, i64 144
  %11 = load i8, ptr %10, align 8
  %12 = or i8 %11, 2
  store i8 %12, ptr %10, align 8
  %13 = and i8 %11, 1
  %.not = icmp eq i8 %13, 0
  br i1 %.not, label %27, label %14

14:                                               ; preds = %6
  %15 = tail call i32 @evbuffer_add(ptr noundef %9, ptr noundef nonnull @.str.21, i64 noundef 5) #18
  %16 = load ptr, ptr %2, align 8
  %17 = load i32, ptr @event_debug_logging_mask_, align 4
  %.not.i = icmp eq i32 %17, 0
  br i1 %.not.i, label %evhttp_write_buffer.exit, label %18

18:                                               ; preds = %14
  tail call void (ptr, ...) @event_debugx_(ptr noundef nonnull @.str.95, ptr noundef nonnull @__func__.evhttp_write_buffer) #18
  br label %evhttp_write_buffer.exit

evhttp_write_buffer.exit:                         ; preds = %14, %18
  %19 = getelementptr inbounds nuw i8, ptr %16, i64 312
  store ptr @evhttp_send_done, ptr %19, align 8
  %20 = getelementptr inbounds nuw i8, ptr %16, i64 320
  store ptr null, ptr %20, align 8
  %21 = getelementptr inbounds nuw i8, ptr %16, i64 16
  %22 = load ptr, ptr %21, align 8
  tail call void @bufferevent_setcb(ptr noundef %22, ptr noundef null, ptr noundef nonnull @evhttp_write_cb, ptr noundef nonnull @evhttp_error_cb, ptr noundef %16) #18
  %23 = load ptr, ptr %21, align 8
  %24 = tail call i32 @bufferevent_enable(ptr noundef %23, i16 noundef signext 6) #18
  %25 = load i8, ptr %10, align 8
  %26 = and i8 %25, -2
  store i8 %26, ptr %10, align 8
  br label %34

27:                                               ; preds = %6
  %28 = tail call i64 @evbuffer_get_length(ptr noundef %9) #18
  %29 = icmp eq i64 %28, 0
  br i1 %29, label %30, label %31

30:                                               ; preds = %27
  tail call void @evhttp_send_done(ptr noundef nonnull %3, ptr poison)
  br label %34

31:                                               ; preds = %27
  %32 = getelementptr inbounds nuw i8, ptr %3, i64 312
  store ptr @evhttp_send_done, ptr %32, align 8
  %33 = getelementptr inbounds nuw i8, ptr %3, i64 320
  store ptr null, ptr %33, align 8
  br label %34

34:                                               ; preds = %evhttp_write_buffer.exit, %31, %30, %5
  ret void
}